target datalayout = "e-m:e-p270:32:32-p271:32:32-p272:64:64-i64:64-i128:128-f80:128-n8:16:32:64-S128"
target triple = "x86_64-pc-linux-gnu"

; Function Attrs: nounwind uwtable
define dso_local void @KeccakP1600_AddBytesInLane(ptr noundef %0, i32 noundef %1, ptr noundef %2, i32 noundef %3, i32 noundef %4) #0 {
  %6 = alloca ptr, align 8
  %7 = alloca i32, align 4
  %8 = alloca ptr, align 8
  %9 = alloca i32, align 4
  %10 = alloca i32, align 4
  %11 = alloca i64, align 8
  %12 = alloca i32, align 4
  store ptr %0, ptr %6, align 8
  store i32 %1, ptr %7, align 4
  store ptr %2, ptr %8, align 8
  store i32 %3, ptr %9, align 4
  store i32 %4, ptr %10, align 4
  call void @llvm.lifetime.start.p0(i64 8, ptr %11) #4
  %13 = load i32, ptr %10, align 4
  %14 = icmp eq i32 %13, 0
  br i1 %14, label %15, label %16

15:                                               ; preds = %5
  store i32 1, ptr %12, align 4
  br label %41

16:                                               ; preds = %5
  %17 = load i32, ptr %10, align 4
  %18 = icmp eq i32 %17, 1
  br i1 %18, label %19, label %24

19:                                               ; preds = %16
  %20 = load ptr, ptr %8, align 8
  %21 = getelementptr inbounds i8, ptr %20, i64 0
  %22 = load i8, ptr %21, align 1
  %23 = zext i8 %22 to i64
  store i64 %23, ptr %11, align 8
  br label %28

24:                                               ; preds = %16
  store i64 0, ptr %11, align 8
  %25 = load ptr, ptr %8, align 8
  %26 = load i32, ptr %10, align 4
  %27 = zext i32 %26 to i64
  call void @llvm.memcpy.p0.p0.i64(ptr align 8 %11, ptr align 1 %25, i64 %27, i1 false)
  br label %28

28:                                               ; preds = %24, %19
  %29 = load i32, ptr %9, align 4
  %30 = mul i32 %29, 8
  %31 = load i64, ptr %11, align 8
  %32 = zext i32 %30 to i64
  %33 = shl i64 %31, %32
  store i64 %33, ptr %11, align 8
  %34 = load i64, ptr %11, align 8
  %35 = load ptr, ptr %6, align 8
  %36 = load i32, ptr %7, align 4
  %37 = zext i32 %36 to i64
  %38 = getelementptr inbounds nuw i64, ptr %35, i64 %37
  %39 = load i64, ptr %38, align 8
  %40 = xor i64 %39, %34
  store i64 %40, ptr %38, align 8
  store i32 0, ptr %12, align 4
  br label %41

41:                                               ; preds = %28, %15
  call void @llvm.lifetime.end.p0(i64 8, ptr %11) #4
  %42 = load i32, ptr %12, align 4
  switch i32 %42, label %44 [
    i32 0, label %43
    i32 1, label %43
  ]

43:                                               ; preds = %41, %41
  ret void

44:                                               ; preds = %41
  unreachable
}